; Function Attrs: mustprogress nofree norecurse nosync nounwind willreturn memory(argmem: readwrite) uwtable
define void @_ZN7testing15AssertionResult4swapERS0_(ptr noundef nonnull align 8 captures(none) dereferenceable(16) %0, ptr noundef nonnull align 8 captures(none) dereferenceable(16) %1) local_unnamed_addr #22 align 2 {
  %3 = load i8, ptr %0, align 8, !tbaa !67, !range !68, !noundef !69
  %4 = load i8, ptr %1, align 8, !tbaa !67, !range !68, !noundef !69
  store i8 %4, ptr %0, align 8, !tbaa !67
  store i8 %3, ptr %1, align 8, !tbaa !67
  %5 = getelementptr inbounds nuw i8, ptr %0, i64 8
  %6 = getelementptr inbounds nuw i8, ptr %1, i64 8
  %7 = load ptr, ptr %5, align 8, !tbaa !297
  %8 = load ptr, ptr %6, align 8, !tbaa !297
  store ptr %8, ptr %5, align 8, !tbaa !297
  store ptr %7, ptr %6, align 8, !tbaa !297
  ret void
}